target datalayout = "e-m:e-p270:32:32-p271:32:32-p272:64:64-i64:64-i128:128-f80:128-n8:16:32:64-S128"
target triple = "x86_64-pc-linux-gnu"

@proto_register_ctdb.ett = internal global [2 x ptr] [ptr @ett_ctdb, ptr @ett_ctdb_key], align 16
@.str.81 = private unnamed_addr constant [12 x i8] c"Cluster TDB\00", align 1
@.str.82 = private unnamed_addr constant [5 x i8] c"CTDB\00", align 1
@.str.83 = private unnamed_addr constant [5 x i8] c"ctdb\00", align 1
@proto_ctdb = internal global i32 0, align 4
@ctdb_handle = internal global ptr null, align 8
@ctdb_transactions = internal global ptr null, align 8
@ctdb_controls = internal global ptr null, align 8

; Function Attrs: nounwind uwtable
define hidden void @proto_register_ctdb() #0 {
  %1 = alloca ptr, align 8
  %2 = call i32 @proto_register_protocol(ptr noundef @.str.81, ptr noundef @.str.82, ptr noundef @.str.83)
  store i32 %2, ptr @proto_ctdb, align 4
  %3 = load i32, ptr @proto_ctdb, align 4
  call void @proto_register_field_array(i32 noundef %3, ptr noundef @proto_register_ctdb.hf, i32 noundef 37)
  call void @proto_register_subtree_array(ptr noundef @proto_register_ctdb.ett, i32 noundef 2)
  %4 = load i32, ptr @proto_ctdb, align 4
  %5 = call ptr @expert_register_protocol(i32 noundef %4)
  store ptr %5, ptr %1, align 8
  %6 = load ptr, ptr %1, align 8
  call void @expert_register_field_array(ptr noundef %6, ptr noundef @proto_register_ctdb.ei, i32 noundef 1)
  %7 = load i32, ptr @proto_ctdb, align 4
  %8 = call ptr @register_dissector(ptr noundef @.str.83, ptr noundef @dissect_ctdb, i32 noundef %7)
  store ptr %8, ptr @ctdb_handle, align 8
  %9 = call ptr @wmem_epan_scope()
  %10 = call ptr @wmem_file_scope()
  %11 = call noalias ptr @wmem_tree_new_autoreset(ptr noundef %9, ptr noundef %10)
  store ptr %11, ptr @ctdb_transactions, align 8
  %12 = call ptr @wmem_epan_scope()
  %13 = call ptr @wmem_file_scope()
  %14 = call noalias ptr @wmem_tree_new_autoreset(ptr noundef %12, ptr noundef %13)
  store ptr %14, ptr @ctdb_controls, align 8
  ret void
}