; Function Attrs: nounwind uwtable
define hidden void @proto_register_ctdb() local_unnamed_addr #0 {
  %1 = tail call i32 @proto_register_protocol(ptr noundef nonnull @.str.81, ptr noundef nonnull @.str.82, ptr noundef nonnull @.str.83) #4
  store i32 %1, ptr @proto_ctdb, align 4
  tail call void @proto_register_field_array(i32 noundef %1, ptr noundef nonnull @proto_register_ctdb.hf, i32 noundef 37) #4
  tail call void @proto_register_subtree_array(ptr noundef nonnull @proto_register_ctdb.ett, i32 noundef 2) #4
  %2 = load i32, ptr @proto_ctdb, align 4
  %3 = tail call ptr @expert_register_protocol(i32 noundef %2) #4
  tail call void @expert_register_field_array(ptr noundef %3, ptr noundef nonnull @proto_register_ctdb.ei, i32 noundef 1) #4
  %4 = load i32, ptr @proto_ctdb, align 4
  %5 = tail call ptr @register_dissector(ptr noundef nonnull @.str.83, ptr noundef nonnull @dissect_ctdb, i32 noundef %4) #4
  store ptr %5, ptr @ctdb_handle, align 8
  %6 = tail call ptr @wmem_epan_scope() #4
  %7 = tail call ptr @wmem_file_scope() #4
  %8 = tail call noalias ptr @wmem_tree_new_autoreset(ptr noundef %6, ptr noundef %7) #4
  store ptr %8, ptr @ctdb_transactions, align 8
  %9 = tail call ptr @wmem_epan_scope() #4
  %10 = tail call ptr @wmem_file_scope() #4
  %11 = tail call noalias ptr @wmem_tree_new_autoreset(ptr noundef %9, ptr noundef %10) #4
  store ptr %11, ptr @ctdb_controls, align 8
  ret void
}